target datalayout = "e-m:e-p270:32:32-p271:32:32-p272:64:64-i64:64-i128:128-f80:128-n8:16:32:64-S128"
target triple = "x86_64-pc-linux-gnu"

%struct.T1_Builder_FuncsRec_ = type { ptr, ptr, ptr, ptr, ptr, ptr, ptr, ptr }
%struct.T1_Decoder_FuncsRec_ = type { ptr, ptr, ptr, ptr }
%struct.FT_BBox_ = type { i64, i64, i64, i64 }
%struct.T1_BuilderRec_ = type { ptr, ptr, ptr, ptr, ptr, ptr, i64, i64, %struct.FT_Vector_, %struct.FT_Vector_, %struct.FT_BBox_, i32, i8, i8, i8, ptr, ptr, %struct.T1_Builder_FuncsRec_ }
%struct.FT_Vector_ = type { i64, i64 }
%struct.FT_GlyphSlotRec_ = type { ptr, ptr, ptr, i32, %struct.FT_Generic_, %struct.FT_Glyph_Metrics_, i64, i64, %struct.FT_Vector_, i32, %struct.FT_Bitmap_, i32, i32, %struct.FT_Outline_, i32, ptr, ptr, i64, i64, i64, ptr, ptr }
%struct.FT_Generic_ = type { ptr, ptr }
%struct.FT_Glyph_Metrics_ = type { i64, i64, i64, i64, i64, i64, i64, i64 }
%struct.FT_Bitmap_ = type { i32, i32, i32, ptr, i16, i8, i8, ptr }
%struct.FT_Outline_ = type { i16, i16, ptr, ptr, ptr, i32 }
%struct.FT_Matrix_ = type { i64, i64, i64, i64 }
%struct.T1_DecoderRec_ = type { %struct.T1_BuilderRec_, [256 x i64], ptr, [17 x %struct.T1_Decoder_ZoneRec_], ptr, ptr, i32, ptr, i32, i32, ptr, ptr, ptr, %struct.FT_Matrix_, %struct.FT_Vector_, i32, i32, [7 x %struct.FT_Vector_], ptr, i32, ptr, %struct.T1_Decoder_FuncsRec_, ptr, i32, i8, %struct.FT_Generic_ }
%struct.T1_Decoder_ZoneRec_ = type { ptr, ptr, ptr }

; Function Attrs: nounwind uwtable
define internal void @t1_builder_done(ptr noundef %0) #0 {
  %2 = alloca ptr, align 8
  %3 = alloca ptr, align 8
  store ptr %0, ptr %2, align 8
  %4 = load ptr, ptr %2, align 8
  %5 = getelementptr inbounds %struct.T1_BuilderRec_, ptr %4, i32 0, i32 2
  %6 = load ptr, ptr %5, align 8
  store ptr %6, ptr %3, align 8
  %7 = load ptr, ptr %3, align 8
  %8 = icmp ne ptr %7, null
  br i1 %8, label %9, label %15

9:                                                ; preds = %1
  %10 = load ptr, ptr %3, align 8
  %11 = getelementptr inbounds %struct.FT_GlyphSlotRec_, ptr %10, i32 0, i32 13
  %12 = load ptr, ptr %2, align 8
  %13 = getelementptr inbounds %struct.T1_BuilderRec_, ptr %12, i32 0, i32 4
  %14 = load ptr, ptr %13, align 8
  call void @llvm.memcpy.p0.p0.i64(ptr align 8 %11, ptr align 8 %14, i64 40, i1 false)
  br label %15

15:                                               ; preds = %9, %1
  ret void
}

; Function Attrs: nounwind uwtable
define internal void @t1_decoder_done(ptr noundef %0) #0 {
  %2 = alloca ptr, align 8
  %3 = alloca ptr, align 8
  store ptr %0, ptr %2, align 8
  %4 = load ptr, ptr %2, align 8
  %5 = getelementptr inbounds %struct.T1_DecoderRec_, ptr %4, i32 0, i32 0
  %6 = getelementptr inbounds %struct.T1_BuilderRec_, ptr %5, i32 0, i32 0
  %7 = load ptr, ptr %6, align 8
  store ptr %7, ptr %3, align 8
  %8 = load ptr, ptr %2, align 8
  %9 = getelementptr inbounds %struct.T1_DecoderRec_, ptr %8, i32 0, i32 0
  call void @t1_builder_done(ptr noundef %9)
  %10 = load ptr, ptr %2, align 8
  %11 = getelementptr inbounds %struct.T1_DecoderRec_, ptr %10, i32 0, i32 25
  %12 = getelementptr inbounds %struct.FT_Generic_, ptr %11, i32 0, i32 1
  %13 = load ptr, ptr %12, align 8
  %14 = icmp ne ptr %13, null
  br i1 %14, label %15, label %34

15:                                               ; preds = %1
  %16 = load ptr, ptr %2, align 8
  %17 = getelementptr inbounds %struct.T1_DecoderRec_, ptr %16, i32 0, i32 25
  %18 = getelementptr inbounds %struct.FT_Generic_, ptr %17, i32 0, i32 1
  %19 = load ptr, ptr %18, align 8
  %20 = load ptr, ptr %2, align 8
  %21 = getelementptr inbounds %struct.T1_DecoderRec_, ptr %20, i32 0, i32 25
  %22 = getelementptr inbounds %struct.FT_Generic_, ptr %21, i32 0, i32 0
  %23 = load ptr, ptr %22, align 8
  call void %19(ptr noundef %23)
  br label %24

24:                                               ; preds = %15
  %25 = load ptr, ptr %3, align 8
  %26 = load ptr, ptr %2, align 8
  %27 = getelementptr inbounds %struct.T1_DecoderRec_, ptr %26, i32 0, i32 25
  %28 = getelementptr inbounds %struct.FT_Generic_, ptr %27, i32 0, i32 0
  %29 = load ptr, ptr %28, align 8
  call void @ft_mem_free(ptr noundef %25, ptr noundef %29)
  %30 = load ptr, ptr %2, align 8
  %31 = getelementptr inbounds %struct.T1_DecoderRec_, ptr %30, i32 0, i32 25
  %32 = getelementptr inbounds %struct.FT_Generic_, ptr %31, i32 0, i32 0
  store ptr null, ptr %32, align 8
  br label %33

33:                                               ; preds = %24
  br label %34

34:                                               ; preds = %33, %1
  ret void
}