; Function Attrs: nounwind uwtable
define internal void @t1_decoder_done(ptr noundef captures(none) %0) #0 {
  %2 = load ptr, ptr %0, align 8
  %3 = getelementptr inbounds nuw i8, ptr %0, i64 16
  %4 = load ptr, ptr %3, align 8
  %.not.i = icmp eq ptr %4, null
  br i1 %.not.i, label %t1_builder_done.exit, label %5

5:                                                ; preds = %1
  %6 = getelementptr inbounds nuw i8, ptr %4, i64 200
  %7 = getelementptr inbounds nuw i8, ptr %0, i64 32
  %8 = load ptr, ptr %7, align 8
  tail call void @llvm.memcpy.p0.p0.i64(ptr noundef nonnull align 8 dereferenceable(40) %6, ptr noundef nonnull align 8 dereferenceable(40) %8, i64 40, i1 false)
  br label %t1_builder_done.exit

t1_builder_done.exit:                             ; preds = %1, %5
  %9 = getelementptr inbounds nuw i8, ptr %0, i64 2992
  %10 = load ptr, ptr %9, align 8
  %.not = icmp eq ptr %10, null
  br i1 %.not, label %15, label %11

11:                                               ; preds = %t1_builder_done.exit
  %12 = getelementptr inbounds nuw i8, ptr %0, i64 2984
  %13 = load ptr, ptr %12, align 8
  tail call void %10(ptr noundef %13) #20
  %14 = load ptr, ptr %12, align 8
  tail call void @ft_mem_free(ptr noundef %2, ptr noundef %14) #20
  store ptr null, ptr %12, align 8
  br label %15

15:                                               ; preds = %11, %t1_builder_done.exit
  ret void
}